target datalayout = "e-m:e-p270:32:32-p271:32:32-p272:64:64-i64:64-i128:128-f80:128-n8:16:32:64-S128"
target triple = "x86_64-pc-linux-gnu"

%struct.H5C_class_t = type { i32, ptr, i32, i32, ptr, ptr, ptr, ptr, ptr, ptr, ptr, ptr, ptr, ptr }
%struct.H5FS_t = type { %struct.H5C_cache_entry_t, i64, i64, i64, i64, i32, i16, i32, i32, i32, i64, i64, i64, i64, i32, i64, i64, ptr, i8, i32, i8, i8, i32, i64, i64, i64, ptr }
%struct.H5C_cache_entry_t = type { ptr, i64, i64, ptr, i8, ptr, i8, i8, i8, i8, i32, i8, i8, i8, i8, i8, i32, ptr, i32, i32, i32, i32, i32, i8, i8, ptr, ptr, ptr, ptr, ptr, ptr, i8, i32, i8, i64, ptr, i64, i64, i32, i8, i32, i32, i8, ptr, ptr, ptr }
%struct.H5FS_hdr_cache_ud_t = type { ptr, i16, ptr, ptr, i64 }

@.str.2 = private unnamed_addr constant [98 x i8] c"generated/home/dtcxzyw/WorkSpace/Projects/compilers/llvm-opt-benchmark/bench/hdf5/hdf5/src/H5FS.c\00", align 1
@H5AC_FSPACE_HDR = external constant [1 x %struct.H5C_class_t], align 16
@H5E_FSPACE_g = external global i64, align 8
@__func__.H5FS_open = private unnamed_addr constant [10 x i8] c"H5FS_open\00", align 1
@H5E_CANTPROTECT_g = external global i64, align 8
@.str.7 = private unnamed_addr constant [33 x i8] c"unable to load free space header\00", align 1
@H5E_CANTINC_g = external global i64, align 8
@.str.8 = private unnamed_addr constant [52 x i8] c"unable to increment ref. count on free space header\00", align 1
@H5E_CANTUNPROTECT_g = external global i64, align 8
@.str.9 = private unnamed_addr constant [36 x i8] c"unable to release free space header\00", align 1
@__func__.H5FS__incr = private unnamed_addr constant [11 x i8] c"H5FS__incr\00", align 1
@H5E_CANTPIN_g = external global i64, align 8
@.str.23 = private unnamed_addr constant [32 x i8] c"unable to pin free space header\00", align 1

; Function Attrs: nounwind uwtable
define i32 @H5FS__incr(ptr noundef %0) #0 {
  %2 = alloca ptr, align 8
  %3 = alloca i32, align 4
  %4 = alloca i8, align 1
  store ptr %0, ptr %2, align 8
  store i32 0, ptr %3, align 4
  store i8 0, ptr %4, align 1
  %5 = load ptr, ptr %2, align 8
  %6 = getelementptr inbounds %struct.H5FS_t, ptr %5, i32 0, i32 14
  %7 = load i32, ptr %6, align 8
  %8 = icmp eq i32 %7, 0
  br i1 %8, label %9, label %34

9:                                                ; preds = %1
  %10 = load ptr, ptr %2, align 8
  %11 = getelementptr inbounds %struct.H5FS_t, ptr %10, i32 0, i32 15
  %12 = load i64, ptr %11, align 8
  %13 = icmp ne i64 %12, -1
  br i1 %13, label %14, label %34

14:                                               ; preds = %9
  %15 = load ptr, ptr %2, align 8
  %16 = call i32 @H5AC_pin_protected_entry(ptr noundef %15)
  %17 = icmp slt i32 %16, 0
  br i1 %17, label %18, label %33

18:                                               ; preds = %14
  br label %19

19:                                               ; preds = %18
  br label %20

20:                                               ; preds = %19
  br label %21

21:                                               ; preds = %20
  %22 = load i64, ptr @H5E_FSPACE_g, align 8
  %23 = load i64, ptr @H5E_CANTPIN_g, align 8
  %24 = call i32 (ptr, ptr, i32, i64, i64, ptr, ...) @H5E_printf_stack(ptr noundef @.str.2, ptr noundef @__func__.H5FS__incr, i32 noundef 699, i64 noundef %22, i64 noundef %23, ptr noundef @.str.23)
  br label %25

25:                                               ; preds = %21
  store i8 1, ptr %4, align 1
  %26 = load i8, ptr %4, align 1
  %27 = trunc i8 %26 to i1
  %28 = zext i1 %27 to i8
  store i8 %28, ptr %4, align 1
  br label %29

29:                                               ; preds = %25
  br label %30

30:                                               ; preds = %29
  store i32 -1, ptr %3, align 4
  br label %39

31:                                               ; No predecessors!
  br label %32

32:                                               ; preds = %31
  br label %33

33:                                               ; preds = %32, %14
  br label %34

34:                                               ; preds = %33, %9, %1
  %35 = load ptr, ptr %2, align 8
  %36 = getelementptr inbounds %struct.H5FS_t, ptr %35, i32 0, i32 14
  %37 = load i32, ptr %36, align 8
  %38 = add i32 %37, 1
  store i32 %38, ptr %36, align 8
  br label %39

39:                                               ; preds = %34, %30
  %40 = load i32, ptr %3, align 4
  ret i32 %40
}

; Function Attrs: nounwind uwtable
define ptr @H5FS_open(ptr noundef %0, i64 noundef %1, i16 noundef zeroext %2, ptr noundef %3, ptr noundef %4, i64 noundef %5, i64 noundef %6) #0 {
  %8 = alloca ptr, align 8
  %9 = alloca i64, align 8
  %10 = alloca i16, align 2
  %11 = alloca ptr, align 8
  %12 = alloca ptr, align 8
  %13 = alloca i64, align 8
  %14 = alloca i64, align 8
  %15 = alloca ptr, align 8
  %16 = alloca %struct.H5FS_hdr_cache_ud_t, align 8
  %17 = alloca ptr, align 8
  %18 = alloca i8, align 1
  store ptr %0, ptr %8, align 8
  store i64 %1, ptr %9, align 8
  store i16 %2, ptr %10, align 2
  store ptr %3, ptr %11, align 8
  store ptr %4, ptr %12, align 8
  store i64 %5, ptr %13, align 8
  store i64 %6, ptr %14, align 8
  store ptr null, ptr %15, align 8
  store ptr null, ptr %17, align 8
  store i8 0, ptr %18, align 1
  %19 = load ptr, ptr %8, align 8
  %20 = getelementptr inbounds %struct.H5FS_hdr_cache_ud_t, ptr %16, i32 0, i32 0
  store ptr %19, ptr %20, align 8
  %21 = load i16, ptr %10, align 2
  %22 = getelementptr inbounds %struct.H5FS_hdr_cache_ud_t, ptr %16, i32 0, i32 1
  store i16 %21, ptr %22, align 8
  %23 = load ptr, ptr %11, align 8
  %24 = getelementptr inbounds %struct.H5FS_hdr_cache_ud_t, ptr %16, i32 0, i32 2
  store ptr %23, ptr %24, align 8
  %25 = load ptr, ptr %12, align 8
  %26 = getelementptr inbounds %struct.H5FS_hdr_cache_ud_t, ptr %16, i32 0, i32 3
  store ptr %25, ptr %26, align 8
  %27 = load i64, ptr %9, align 8
  %28 = getelementptr inbounds %struct.H5FS_hdr_cache_ud_t, ptr %16, i32 0, i32 4
  store i64 %27, ptr %28, align 8
  %29 = load ptr, ptr %8, align 8
  %30 = load i64, ptr %9, align 8
  %31 = call ptr @H5AC_protect(ptr noundef %29, ptr noundef @H5AC_FSPACE_HDR, i64 noundef %30, ptr noundef %16, i32 noundef 128)
  store ptr %31, ptr %15, align 8
  %32 = icmp eq ptr null, %31
  br i1 %32, label %33, label %48

33:                                               ; preds = %7
  br label %34

34:                                               ; preds = %33
  br label %35

35:                                               ; preds = %34
  br label %36

36:                                               ; preds = %35
  %37 = load i64, ptr @H5E_FSPACE_g, align 8
  %38 = load i64, ptr @H5E_CANTPROTECT_g, align 8
  %39 = call i32 (ptr, ptr, i32, i64, i64, ptr, ...) @H5E_printf_stack(ptr noundef @.str.2, ptr noundef @__func__.H5FS_open, i32 noundef 194, i64 noundef %37, i64 noundef %38, ptr noundef @.str.7)
  br label %40

40:                                               ; preds = %36
  store i8 1, ptr %18, align 1
  %41 = load i8, ptr %18, align 1
  %42 = trunc i8 %41 to i1
  %43 = zext i1 %42 to i8
  store i8 %43, ptr %18, align 1
  br label %44

44:                                               ; preds = %40
  br label %45

45:                                               ; preds = %44
  store ptr null, ptr %17, align 8
  br label %96

46:                                               ; No predecessors!
  br label %47

47:                                               ; preds = %46
  br label %48

48:                                               ; preds = %47, %7
  %49 = load ptr, ptr %15, align 8
  %50 = call i32 @H5FS__incr(ptr noundef %49)
  %51 = icmp slt i32 %50, 0
  br i1 %51, label %52, label %67

52:                                               ; preds = %48
  br label %53

53:                                               ; preds = %52
  br label %54

54:                                               ; preds = %53
  br label %55

55:                                               ; preds = %54
  %56 = load i64, ptr @H5E_FSPACE_g, align 8
  %57 = load i64, ptr @H5E_CANTINC_g, align 8
  %58 = call i32 (ptr, ptr, i32, i64, i64, ptr, ...) @H5E_printf_stack(ptr noundef @.str.2, ptr noundef @__func__.H5FS_open, i32 noundef 206, i64 noundef %56, i64 noundef %57, ptr noundef @.str.8)
  br label %59

59:                                               ; preds = %55
  store i8 1, ptr %18, align 1
  %60 = load i8, ptr %18, align 1
  %61 = trunc i8 %60 to i1
  %62 = zext i1 %61 to i8
  store i8 %62, ptr %18, align 1
  br label %63

63:                                               ; preds = %59
  br label %64

64:                                               ; preds = %63
  store ptr null, ptr %17, align 8
  br label %96

65:                                               ; No predecessors!
  br label %66

66:                                               ; preds = %65
  br label %67

67:                                               ; preds = %66, %48
  %68 = load i64, ptr %13, align 8
  %69 = load ptr, ptr %15, align 8
  %70 = getelementptr inbounds %struct.H5FS_t, ptr %69, i32 0, i32 24
  store i64 %68, ptr %70, align 8
  %71 = load i64, ptr %14, align 8
  %72 = load ptr, ptr %15, align 8
  %73 = getelementptr inbounds %struct.H5FS_t, ptr %72, i32 0, i32 25
  store i64 %71, ptr %73, align 8
  %74 = load ptr, ptr %8, align 8
  %75 = load i64, ptr %9, align 8
  %76 = load ptr, ptr %15, align 8
  %77 = call i32 @H5AC_unprotect(ptr noundef %74, ptr noundef @H5AC_FSPACE_HDR, i64 noundef %75, ptr noundef %76, i32 noundef 0)
  %78 = icmp slt i32 %77, 0
  br i1 %78, label %79, label %94

79:                                               ; preds = %67
  br label %80

80:                                               ; preds = %79
  br label %81

81:                                               ; preds = %80
  br label %82

82:                                               ; preds = %81
  %83 = load i64, ptr @H5E_FSPACE_g, align 8
  %84 = load i64, ptr @H5E_CANTUNPROTECT_g, align 8
  %85 = call i32 (ptr, ptr, i32, i64, i64, ptr, ...) @H5E_printf_stack(ptr noundef @.str.2, ptr noundef @__func__.H5FS_open, i32 noundef 213, i64 noundef %83, i64 noundef %84, ptr noundef @.str.9)
  br label %86

86:                                               ; preds = %82
  store i8 1, ptr %18, align 1
  %87 = load i8, ptr %18, align 1
  %88 = trunc i8 %87 to i1
  %89 = zext i1 %88 to i8
  store i8 %89, ptr %18, align 1
  br label %90

90:                                               ; preds = %86
  br label %91

91:                                               ; preds = %90
  store ptr null, ptr %17, align 8
  br label %96

92:                                               ; No predecessors!
  br label %93

93:                                               ; preds = %92
  br label %94

94:                                               ; preds = %93, %67
  %95 = load ptr, ptr %15, align 8
  store ptr %95, ptr %17, align 8
  br label %96

96:                                               ; preds = %94, %91, %64, %45
  %97 = load ptr, ptr %17, align 8
  ret ptr %97
}