; Function Attrs: nounwind uwtable
define ptr @H5FS_open(ptr noundef %0, i64 noundef %1, i16 noundef zeroext %2, ptr noundef %3, ptr noundef %4, i64 noundef %5, i64 noundef %6) local_unnamed_addr #0 {
  %8 = alloca %struct.H5FS_hdr_cache_ud_t, align 8
  store ptr %0, ptr %8, align 8
  %9 = getelementptr inbounds i8, ptr %8, i64 8
  store i16 %2, ptr %9, align 8
  %10 = getelementptr inbounds i8, ptr %8, i64 16
  store ptr %3, ptr %10, align 8
  %11 = getelementptr inbounds i8, ptr %8, i64 24
  store ptr %4, ptr %11, align 8
  %12 = getelementptr inbounds i8, ptr %8, i64 32
  store i64 %1, ptr %12, align 8
  %13 = call ptr @H5AC_protect(ptr noundef %0, ptr noundef nonnull @H5AC_FSPACE_HDR, i64 noundef %1, ptr noundef nonnull %8, i32 noundef 128) #5
  %14 = icmp eq ptr %13, null
  br i1 %14, label %15, label %19

15:                                               ; preds = %7
  %16 = load i64, ptr @H5E_FSPACE_g, align 8
  %17 = load i64, ptr @H5E_CANTPROTECT_g, align 8
  %18 = call i32 (ptr, ptr, i32, i64, i64, ptr, ...) @H5E_printf_stack(ptr noundef nonnull @.str.2, ptr noundef nonnull @__func__.H5FS_open, i32 noundef 194, i64 noundef %16, i64 noundef %17, ptr noundef nonnull @.str.7) #5
  br label %47

19:                                               ; preds = %7
  %20 = getelementptr inbounds i8, ptr %13, i64 336
  %21 = load i32, ptr %20, align 8
  %22 = icmp eq i32 %21, 0
  br i1 %22, label %23, label %36

23:                                               ; preds = %19
  %24 = getelementptr inbounds i8, ptr %13, i64 344
  %25 = load i64, ptr %24, align 8
  %.not.i = icmp eq i64 %25, -1
  br i1 %.not.i, label %36, label %26

26:                                               ; preds = %23
  %27 = call i32 @H5AC_pin_protected_entry(ptr noundef nonnull %13) #5
  %28 = icmp slt i32 %27, 0
  br i1 %28, label %29, label %._crit_edge.i

._crit_edge.i:                                    ; preds = %26
  %.pre.i = load i32, ptr %20, align 8
  br label %36

29:                                               ; preds = %26
  %30 = load i64, ptr @H5E_FSPACE_g, align 8
  %31 = load i64, ptr @H5E_CANTPIN_g, align 8
  %32 = call i32 (ptr, ptr, i32, i64, i64, ptr, ...) @H5E_printf_stack(ptr noundef nonnull @.str.2, ptr noundef nonnull @__func__.H5FS__incr, i32 noundef 699, i64 noundef %30, i64 noundef %31, ptr noundef nonnull @.str.23) #5
  %33 = load i64, ptr @H5E_FSPACE_g, align 8
  %34 = load i64, ptr @H5E_CANTINC_g, align 8
  %35 = call i32 (ptr, ptr, i32, i64, i64, ptr, ...) @H5E_printf_stack(ptr noundef nonnull @.str.2, ptr noundef nonnull @__func__.H5FS_open, i32 noundef 206, i64 noundef %33, i64 noundef %34, ptr noundef nonnull @.str.8) #5
  br label %47

36:                                               ; preds = %._crit_edge.i, %23, %19
  %37 = phi i32 [ %.pre.i, %._crit_edge.i ], [ 0, %23 ], [ %21, %19 ]
  %38 = add i32 %37, 1
  store i32 %38, ptr %20, align 8
  %39 = getelementptr inbounds i8, ptr %13, i64 392
  store i64 %5, ptr %39, align 8
  %40 = getelementptr inbounds i8, ptr %13, i64 400
  store i64 %6, ptr %40, align 8
  %41 = call i32 @H5AC_unprotect(ptr noundef %0, ptr noundef nonnull @H5AC_FSPACE_HDR, i64 noundef %1, ptr noundef nonnull %13, i32 noundef 0) #5
  %42 = icmp slt i32 %41, 0
  br i1 %42, label %43, label %47

43:                                               ; preds = %36
  %44 = load i64, ptr @H5E_FSPACE_g, align 8
  %45 = load i64, ptr @H5E_CANTUNPROTECT_g, align 8
  %46 = call i32 (ptr, ptr, i32, i64, i64, ptr, ...) @H5E_printf_stack(ptr noundef nonnull @.str.2, ptr noundef nonnull @__func__.H5FS_open, i32 noundef 213, i64 noundef %44, i64 noundef %45, ptr noundef nonnull @.str.9) #5
  br label %47

47:                                               ; preds = %36, %43, %29, %15
  %.0 = phi ptr [ null, %15 ], [ null, %29 ], [ null, %43 ], [ %13, %36 ]
  ret ptr %.0
}